target datalayout = "e-m:e-p270:32:32-p271:32:32-p272:64:64-i64:64-i128:128-f80:128-n8:16:32:64-S128"
target triple = "x86_64-unknown-linux-gnu"

%struct.Coroutine = type { ptr, ptr, ptr, %struct.anon.1, i64, ptr, ptr, %struct.anon.2, %struct.anon.3, %struct.anon.4 }
%struct.anon.1 = type { ptr }
%struct.anon.2 = type { ptr }
%struct.anon.3 = type { ptr, ptr }
%struct.anon.4 = type { ptr }

; Function Attrs: nounwind sspstrong uwtable
define dso_local void @qemu_coroutine_enter(ptr noundef %co) #0 {
entry:
  %co.addr = alloca ptr, align 8
  store ptr %co, ptr %co.addr, align 8
  %call = call ptr @qemu_get_current_aio_context()
  %0 = load ptr, ptr %co.addr, align 8
  call void @qemu_aio_coroutine_enter(ptr noundef %call, ptr noundef %0)
  ret void
}

; Function Attrs: nounwind sspstrong uwtable
define dso_local zeroext i1 @qemu_coroutine_entered(ptr noundef %co) #0 {
entry:
  %co.addr = alloca ptr, align 8
  store ptr %co, ptr %co.addr, align 8
  %0 = load ptr, ptr %co.addr, align 8
  %caller = getelementptr inbounds %struct.Coroutine, ptr %0, i32 0, i32 2
  %1 = load ptr, ptr %caller, align 8
  %tobool = icmp ne ptr %1, null
  ret i1 %tobool
}

; Function Attrs: nounwind sspstrong uwtable
define dso_local void @qemu_coroutine_enter_if_inactive(ptr noundef %co) #0 {
entry:
  %co.addr = alloca ptr, align 8
  store ptr %co, ptr %co.addr, align 8
  %0 = load ptr, ptr %co.addr, align 8
  %call = call zeroext i1 @qemu_coroutine_entered(ptr noundef %0)
  br i1 %call, label %if.end, label %if.then

if.then:                                          ; preds = %entry
  %1 = load ptr, ptr %co.addr, align 8
  call void @qemu_coroutine_enter(ptr noundef %1)
  br label %if.end

if.end:                                           ; preds = %if.then, %entry
  ret void
}