; Function Attrs: nounwind sspstrong uwtable
define dso_local void @qemu_coroutine_enter_if_inactive(ptr noundef %co) local_unnamed_addr #0 {
entry:
  %caller.i = getelementptr inbounds nuw i8, ptr %co, i64 16
  %0 = load ptr, ptr %caller.i, align 8
  %tobool.i.not = icmp eq ptr %0, null
  br i1 %tobool.i.not, label %if.then, label %if.end

if.then:                                          ; preds = %entry
  %call.i = tail call ptr @qemu_get_current_aio_context() #10
  tail call void @qemu_aio_coroutine_enter(ptr noundef %call.i, ptr noundef nonnull %co)
  br label %if.end

if.end:                                           ; preds = %if.then, %entry
  ret void
}